target datalayout = "e-m:e-p270:32:32-p271:32:32-p272:64:64-i64:64-i128:128-f80:128-n8:16:32:64-S128"
target triple = "x86_64-pc-linux-gnu"

%struct.jit_State = type { %struct.GCtrace, ptr, ptr, ptr, ptr, ptr, ptr, i32, i32, i32, i8, i8, %struct.IRType1, i8, %struct.FoldState, ptr, i32, i32, i32, i32, i32, i32, i32, [1 x i32], [5 x %union.TValue], [3 x %union.TValue], ptr, i32, i32, i32, i32, ptr, ptr, i32, i32, i8, ptr, i32, i32, i16, [101 x i16], [258 x i32], [15 x i32], [16 x ptr], [64 x %struct.HotPenalty], i32, [16 x %struct.BPropEntry], i32, %struct.ScEvEntry, ptr, i32, i32, i32, ptr, i32, i32, ptr, ptr, ptr, i64, i64, %union.TValue, ptr, i32, i32 }
%struct.GCtrace = type { %struct.GCRef, i8, i8, i16, i32, i32, %struct.GCRef, ptr, i32, i32, ptr, ptr, %struct.GCRef, %struct.MRef, i32, i32, ptr, i32, i16, i16, i16, i16, i16, i16, i16, i8, i8, i8, i8 }
%struct.GCRef = type { i64 }
%struct.MRef = type { i64 }
%struct.IRType1 = type { i8 }
%struct.FoldState = type { %union.IRIns, [2 x %union.IRIns], [2 x %union.IRIns] }
%union.IRIns = type { %struct.GCRef }
%struct.HotPenalty = type { %struct.MRef, i16, i16 }
%struct.BPropEntry = type { i16, i16, i32 }
%struct.ScEvEntry = type { %struct.MRef, i16, i16, i16, i16, %struct.IRType1, i8 }
%union.TValue = type { i64 }
%struct.anon = type { i16, i16, i16, i16 }
%struct.anon.0 = type { i32, %struct.IRType1, i8, i8, i8 }

; Function Attrs: nounwind uwtable
define hidden i32 @lj_opt_fwd_href_nokey(ptr noundef %0) #0 {
  %2 = alloca i32, align 4
  %3 = alloca ptr, align 8
  %4 = alloca i32, align 4
  %5 = alloca i32, align 4
  %6 = alloca i32, align 4
  %7 = alloca ptr, align 8
  store ptr %0, ptr %3, align 8, !tbaa !4
  call void @llvm.lifetime.start.p0(i64 4, ptr %4) #5
  %8 = load ptr, ptr %3, align 8, !tbaa !4
  %9 = getelementptr inbounds nuw %struct.jit_State, ptr %8, i32 0, i32 14
  %10 = getelementptr inbounds nuw %struct.FoldState, ptr %9, i32 0, i32 0
  %11 = getelementptr inbounds nuw %struct.anon, ptr %10, i32 0, i32 0
  %12 = load i16, ptr %11, align 8, !tbaa !11
  %13 = zext i16 %12 to i32
  store i32 %13, ptr %4, align 4, !tbaa !9
  call void @llvm.lifetime.start.p0(i64 4, ptr %5) #5
  %14 = load ptr, ptr %3, align 8, !tbaa !4
  %15 = getelementptr inbounds nuw %struct.jit_State, ptr %14, i32 0, i32 14
  %16 = getelementptr inbounds nuw %struct.FoldState, ptr %15, i32 0, i32 2
  %17 = getelementptr inbounds [2 x %union.IRIns], ptr %16, i64 0, i64 0
  %18 = getelementptr inbounds nuw %struct.anon.0, ptr %17, i32 0, i32 1
  %19 = getelementptr inbounds nuw %struct.IRType1, ptr %18, i32 0, i32 0
  %20 = load i8, ptr %19, align 4, !tbaa !11
  %21 = zext i8 %20 to i32
  %22 = and i32 %21, 31
  %23 = icmp eq i32 %22, 14
  br i1 %23, label %24, label %63

24:                                               ; preds = %1
  %25 = load ptr, ptr %3, align 8, !tbaa !4
  %26 = getelementptr inbounds nuw %struct.jit_State, ptr %25, i32 0, i32 40
  %27 = getelementptr inbounds [101 x i16], ptr %26, i64 0, i64 59
  %28 = load i16, ptr %27, align 2, !tbaa !12
  %29 = zext i16 %28 to i32
  %30 = load i32, ptr %4, align 4, !tbaa !9
  %31 = icmp ugt i32 %29, %30
  br i1 %31, label %32, label %63

32:                                               ; preds = %24
  %33 = load ptr, ptr %3, align 8, !tbaa !4
  %34 = getelementptr inbounds nuw %struct.jit_State, ptr %33, i32 0, i32 40
  %35 = getelementptr inbounds [101 x i16], ptr %34, i64 0, i64 74
  %36 = load i16, ptr %35, align 2, !tbaa !12
  %37 = zext i16 %36 to i32
  store i32 %37, ptr %5, align 4, !tbaa !9
  br label %38

38:                                               ; preds = %51, %32
  %39 = load i32, ptr %5, align 4, !tbaa !9
  %40 = load i32, ptr %4, align 4, !tbaa !9
  %41 = icmp ugt i32 %39, %40
  br i1 %41, label %42, label %62

42:                                               ; preds = %38
  %43 = load i32, ptr %5, align 4, !tbaa !9
  %44 = load ptr, ptr %3, align 8, !tbaa !4
  %45 = getelementptr inbounds nuw %struct.jit_State, ptr %44, i32 0, i32 40
  %46 = getelementptr inbounds [101 x i16], ptr %45, i64 0, i64 59
  %47 = load i16, ptr %46, align 2, !tbaa !12
  %48 = zext i16 %47 to i32
  %49 = icmp ult i32 %43, %48
  br i1 %49, label %50, label %51

50:                                               ; preds = %42
  store i32 0, ptr %2, align 4
  store i32 1, ptr %6, align 4
  br label %106

51:                                               ; preds = %42
  %52 = load ptr, ptr %3, align 8, !tbaa !4
  %53 = getelementptr inbounds nuw %struct.jit_State, ptr %52, i32 0, i32 0
  %54 = getelementptr inbounds nuw %struct.GCtrace, ptr %53, i32 0, i32 7
  %55 = load ptr, ptr %54, align 8, !tbaa !14
  %56 = load i32, ptr %5, align 4, !tbaa !9
  %57 = zext i32 %56 to i64
  %58 = getelementptr inbounds nuw %union.IRIns, ptr %55, i64 %57
  %59 = getelementptr inbounds nuw %struct.anon, ptr %58, i32 0, i32 3
  %60 = load i16, ptr %59, align 2, !tbaa !11
  %61 = zext i16 %60 to i32
  store i32 %61, ptr %5, align 4, !tbaa !9
  br label %38, !llvm.loop !45

62:                                               ; preds = %38
  br label %63

63:                                               ; preds = %62, %24, %1
  %64 = load ptr, ptr %3, align 8, !tbaa !4
  %65 = getelementptr inbounds nuw %struct.jit_State, ptr %64, i32 0, i32 40
  %66 = getelementptr inbounds [101 x i16], ptr %65, i64 0, i64 75
  %67 = load i16, ptr %66, align 2, !tbaa !12
  %68 = zext i16 %67 to i32
  store i32 %68, ptr %5, align 4, !tbaa !9
  br label %69

69:                                               ; preds = %104, %63
  %70 = load i32, ptr %5, align 4, !tbaa !9
  %71 = load i32, ptr %4, align 4, !tbaa !9
  %72 = icmp ugt i32 %70, %71
  br i1 %72, label %73, label %105

73:                                               ; preds = %69
  call void @llvm.lifetime.start.p0(i64 8, ptr %7) #5
  %74 = load ptr, ptr %3, align 8, !tbaa !4
  %75 = getelementptr inbounds nuw %struct.jit_State, ptr %74, i32 0, i32 0
  %76 = getelementptr inbounds nuw %struct.GCtrace, ptr %75, i32 0, i32 7
  %77 = load ptr, ptr %76, align 8, !tbaa !14
  %78 = load i32, ptr %5, align 4, !tbaa !9
  %79 = zext i32 %78 to i64
  %80 = getelementptr inbounds nuw %union.IRIns, ptr %77, i64 %79
  store ptr %80, ptr %7, align 8, !tbaa !32
  %81 = load ptr, ptr %3, align 8, !tbaa !4
  %82 = load ptr, ptr %3, align 8, !tbaa !4
  %83 = getelementptr inbounds nuw %struct.jit_State, ptr %82, i32 0, i32 14
  %84 = getelementptr inbounds nuw %struct.FoldState, ptr %83, i32 0, i32 0
  %85 = load ptr, ptr %3, align 8, !tbaa !4
  %86 = getelementptr inbounds nuw %struct.jit_State, ptr %85, i32 0, i32 0
  %87 = getelementptr inbounds nuw %struct.GCtrace, ptr %86, i32 0, i32 7
  %88 = load ptr, ptr %87, align 8, !tbaa !14
  %89 = load ptr, ptr %7, align 8, !tbaa !32
  %90 = getelementptr inbounds nuw %struct.anon, ptr %89, i32 0, i32 0
  %91 = load i16, ptr %90, align 8, !tbaa !11
  %92 = zext i16 %91 to i64
  %93 = getelementptr inbounds nuw %union.IRIns, ptr %88, i64 %92
  %94 = call i32 @aa_ahref(ptr noundef %81, ptr noundef %84, ptr noundef %93)
  %95 = icmp ne i32 %94, 0
  br i1 %95, label %96, label %97

96:                                               ; preds = %73
  store i32 0, ptr %2, align 4
  store i32 1, ptr %6, align 4
  br label %102

97:                                               ; preds = %73
  %98 = load ptr, ptr %7, align 8, !tbaa !32
  %99 = getelementptr inbounds nuw %struct.anon, ptr %98, i32 0, i32 3
  %100 = load i16, ptr %99, align 2, !tbaa !11
  %101 = zext i16 %100 to i32
  store i32 %101, ptr %5, align 4, !tbaa !9
  store i32 0, ptr %6, align 4
  br label %102

102:                                              ; preds = %97, %96
  call void @llvm.lifetime.end.p0(i64 8, ptr %7) #5
  %103 = load i32, ptr %6, align 4
  switch i32 %103, label %106 [
    i32 0, label %104
  ]

104:                                              ; preds = %102
  br label %69, !llvm.loop !46

105:                                              ; preds = %69
  store i32 1, ptr %2, align 4
  store i32 1, ptr %6, align 4
  br label %106

106:                                              ; preds = %105, %102, %50
  call void @llvm.lifetime.end.p0(i64 4, ptr %5) #5
  call void @llvm.lifetime.end.p0(i64 4, ptr %4) #5
  %107 = load i32, ptr %2, align 4
  ret i32 %107
}