; Function Attrs: nofree norecurse nosync nounwind memory(read, inaccessiblemem: none) uwtable
define hidden range(i32 0, 2) i32 @lj_opt_fwd_href_nokey(ptr noundef readonly captures(address) %0) local_unnamed_addr #0 {
  %2 = getelementptr inbounds nuw i8, ptr %0, i64 184
  %3 = load i16, ptr %2, align 8, !tbaa !4
  %4 = getelementptr inbounds nuw i8, ptr %0, i64 212
  %5 = load i8, ptr %4, align 4, !tbaa !4
  %6 = and i8 %5, 31
  %7 = icmp eq i8 %6, 14
  br i1 %7, label %8, label %.loopexit

8:                                                ; preds = %1
  %9 = getelementptr inbounds nuw i8, ptr %0, i64 520
  %10 = load i16, ptr %9, align 2, !tbaa !33
  %11 = icmp ugt i16 %10, %3
  br i1 %11, label %12, label %.loopexit

12:                                               ; preds = %8
  %13 = getelementptr inbounds nuw i8, ptr %0, i64 550
  %.023.in29 = load i16, ptr %13, align 2, !tbaa !4
  %14 = icmp ugt i16 %.023.in29, %3
  br i1 %14, label %.lr.ph, label %.loopexit

.lr.ph:                                           ; preds = %12
  %15 = getelementptr inbounds nuw i8, ptr %0, i64 32
  br label %16

16:                                               ; preds = %.lr.ph, %18
  %.023.in30 = phi i16 [ %.023.in29, %.lr.ph ], [ %.023.in, %18 ]
  %17 = icmp ult i16 %.023.in30, %10
  br i1 %17, label %.thread, label %18

18:                                               ; preds = %16
  %19 = load ptr, ptr %15, align 8, !tbaa !7
  %20 = zext i16 %.023.in30 to i64
  %21 = getelementptr inbounds nuw %union.IRIns, ptr %19, i64 %20
  %22 = getelementptr inbounds nuw i8, ptr %21, i64 6
  %.023.in = load i16, ptr %22, align 2, !tbaa !4
  %23 = icmp ugt i16 %.023.in, %3
  br i1 %23, label %16, label %.loopexit, !llvm.loop !36

.loopexit:                                        ; preds = %18, %12, %8, %1
  %24 = getelementptr inbounds nuw i8, ptr %0, i64 552
  %.124.in31 = load i16, ptr %24, align 2, !tbaa !4
  %25 = icmp ugt i16 %.124.in31, %3
  br i1 %25, label %.lr.ph33, label %.thread

.lr.ph33:                                         ; preds = %.loopexit
  %26 = getelementptr inbounds nuw i8, ptr %0, i64 32
  %27 = load ptr, ptr %26, align 8, !tbaa !7
  br label %31

28:                                               ; preds = %31
  %29 = getelementptr inbounds nuw i8, ptr %33, i64 6
  %.124.in = load i16, ptr %29, align 2, !tbaa !4
  %30 = icmp ugt i16 %.124.in, %3
  br i1 %30, label %31, label %.thread, !llvm.loop !37

31:                                               ; preds = %.lr.ph33, %28
  %.124.in32 = phi i16 [ %.124.in31, %.lr.ph33 ], [ %.124.in, %28 ]
  %32 = zext i16 %.124.in32 to i64
  %33 = getelementptr inbounds nuw %union.IRIns, ptr %27, i64 %32
  %34 = load i16, ptr %33, align 8, !tbaa !4
  %35 = zext i16 %34 to i64
  %36 = getelementptr inbounds nuw %union.IRIns, ptr %27, i64 %35
  %37 = tail call fastcc i32 @aa_ahref(ptr noundef nonnull %0, ptr noundef nonnull %2, ptr noundef %36)
  %.not = icmp eq i32 %37, 0
  br i1 %.not, label %28, label %.thread

.thread:                                          ; preds = %16, %28, %31, %.loopexit
  %.0 = phi i32 [ 1, %.loopexit ], [ 1, %28 ], [ 0, %31 ], [ 0, %16 ]
  ret i32 %.0
}